target datalayout = "e-m:e-p270:32:32-p271:32:32-p272:64:64-i64:64-i128:128-f80:128-n8:16:32:64-S128"
target triple = "x86_64-pc-linux-gnu"

%struct.H5P_libclass_t = type { ptr, i32, ptr, ptr, ptr, ptr, ptr, ptr, ptr, ptr, ptr, ptr, ptr }
%struct.H5VL_loc_params_t = type { i32, i32, %union.anon.0 }
%union.anon.0 = type { %struct.H5VL_loc_by_idx }
%struct.H5VL_loc_by_idx = type { ptr, i32, i32, i64, i64 }
%struct.H5VL_loc_by_name = type { ptr, i64 }
%struct.H5VL_attr_specific_args_t = type { i32, %union.anon.4 }
%union.anon.4 = type { %struct.H5VL_attr_iterate_args_t }
%struct.H5VL_attr_iterate_args_t = type { i32, i32, ptr, ptr, ptr }
%struct.anon.5 = type { ptr }

@H5_libinit_g = external global i8, align 1
@H5_libterm_g = external global i8, align 1
@.str = private unnamed_addr constant [97 x i8] c"generated/home/dtcxzyw/WorkSpace/Projects/compilers/llvm-opt-benchmark/bench/hdf5/hdf5/src/H5A.c\00", align 1
@H5E_FUNC_g = external global i64, align 8
@H5E_CANTINIT_g = external global i64, align 8
@.str.1 = private unnamed_addr constant [30 x i8] c"library initialization failed\00", align 1
@H5E_CANTSET_g = external global i64, align 8
@.str.2 = private unnamed_addr constant [22 x i8] c"can't set API context\00", align 1
@H5E_ATTR_g = external global i64, align 8
@H5E_ARGS_g = external global i64, align 8
@H5E_BADTYPE_g = external global i64, align 8
@H5P_LST_DATASET_XFER_ID_g = external global i64, align 8
@H5E_BADVALUE_g = external global i64, align 8
@.str.43 = private unnamed_addr constant [39 x i8] c"location is not valid for an attribute\00", align 1
@H5P_CLS_LACC = external constant [1 x %struct.H5P_libclass_t], align 16
@.str.48 = private unnamed_addr constant [36 x i8] c"can't set access property list info\00", align 1
@.str.49 = private unnamed_addr constant [26 x i8] c"invalid object identifier\00", align 1
@.str.54 = private unnamed_addr constant [15 x i8] c"no object name\00", align 1
@.str.55 = private unnamed_addr constant [18 x i8] c"no attribute name\00", align 1
@H5E_CANTDELETE_g = external global i64, align 8
@.str.71 = private unnamed_addr constant [27 x i8] c"unable to delete attribute\00", align 1
@__func__.H5Adelete_by_name = private unnamed_addr constant [18 x i8] c"H5Adelete_by_name\00", align 1

; Function Attrs: nounwind uwtable
define i32 @H5Adelete_by_name(i64 noundef %0, ptr noundef %1, ptr noundef %2, i64 noundef %3) #0 {
  %5 = alloca i64, align 8
  %6 = alloca ptr, align 8
  %7 = alloca ptr, align 8
  %8 = alloca i64, align 8
  %9 = alloca ptr, align 8
  %10 = alloca %struct.H5VL_loc_params_t, align 8
  %11 = alloca %struct.H5VL_attr_specific_args_t, align 8
  %12 = alloca i32, align 4
  %13 = alloca i8, align 1
  %14 = alloca i8, align 1
  store i64 %0, ptr %5, align 8
  store ptr %1, ptr %6, align 8
  store ptr %2, ptr %7, align 8
  store i64 %3, ptr %8, align 8
  store ptr null, ptr %9, align 8
  store i32 0, ptr %12, align 4
  store i8 0, ptr %13, align 1
  store i8 0, ptr %14, align 1
  %15 = load i8, ptr @H5_libinit_g, align 1
  %16 = trunc i8 %15 to i1
  br i1 %16, label %21, label %17

17:                                               ; preds = %4
  %18 = load i8, ptr @H5_libterm_g, align 1
  %19 = trunc i8 %18 to i1
  %20 = xor i1 %19, true
  br label %21

21:                                               ; preds = %17, %4
  %22 = phi i1 [ false, %4 ], [ %20, %17 ]
  %23 = xor i1 %22, true
  %24 = xor i1 %23, true
  %25 = zext i1 %24 to i32
  %26 = sext i32 %25 to i64
  %27 = icmp ne i64 %26, 0
  br i1 %27, label %28, label %52

28:                                               ; preds = %21
  %29 = call i32 @H5_init_library()
  %30 = icmp slt i32 %29, 0
  %31 = xor i1 %30, true
  %32 = xor i1 %31, true
  %33 = zext i1 %32 to i32
  %34 = sext i32 %33 to i64
  %35 = icmp ne i64 %34, 0
  br i1 %35, label %36, label %51

36:                                               ; preds = %28
  br label %37

37:                                               ; preds = %36
  br label %38

38:                                               ; preds = %37
  br label %39

39:                                               ; preds = %38
  %40 = load i64, ptr @H5E_FUNC_g, align 8
  %41 = load i64, ptr @H5E_CANTINIT_g, align 8
  %42 = call i32 (ptr, ptr, i32, i64, i64, ptr, ...) @H5E_printf_stack(ptr noundef @.str, ptr noundef @__func__.H5Adelete_by_name, i32 noundef 2052, i64 noundef %40, i64 noundef %41, ptr noundef @.str.1)
  br label %43

43:                                               ; preds = %39
  store i8 1, ptr %14, align 1
  %44 = load i8, ptr %14, align 1
  %45 = trunc i8 %44 to i1
  %46 = zext i1 %45 to i8
  store i8 %46, ptr %14, align 1
  br label %47

47:                                               ; preds = %43
  br label %48

48:                                               ; preds = %47
  store i32 -1, ptr %12, align 4
  br label %213

49:                                               ; No predecessors!
  br label %50

50:                                               ; preds = %49
  br label %51

51:                                               ; preds = %50, %28
  br label %52

52:                                               ; preds = %51, %21
  %53 = call i32 @H5CX_push()
  %54 = icmp slt i32 %53, 0
  %55 = xor i1 %54, true
  %56 = xor i1 %55, true
  %57 = zext i1 %56 to i32
  %58 = sext i32 %57 to i64
  %59 = icmp ne i64 %58, 0
  br i1 %59, label %60, label %75

60:                                               ; preds = %52
  br label %61

61:                                               ; preds = %60
  br label %62

62:                                               ; preds = %61
  br label %63

63:                                               ; preds = %62
  %64 = load i64, ptr @H5E_FUNC_g, align 8
  %65 = load i64, ptr @H5E_CANTSET_g, align 8
  %66 = call i32 (ptr, ptr, i32, i64, i64, ptr, ...) @H5E_printf_stack(ptr noundef @.str, ptr noundef @__func__.H5Adelete_by_name, i32 noundef 2052, i64 noundef %64, i64 noundef %65, ptr noundef @.str.2)
  br label %67

67:                                               ; preds = %63
  store i8 1, ptr %14, align 1
  %68 = load i8, ptr %14, align 1
  %69 = trunc i8 %68 to i1
  %70 = zext i1 %69 to i8
  store i8 %70, ptr %14, align 1
  br label %71

71:                                               ; preds = %67
  br label %72

72:                                               ; preds = %71
  store i32 -1, ptr %12, align 4
  br label %213

73:                                               ; No predecessors!
  br label %74

74:                                               ; preds = %73
  br label %76

75:                                               ; preds = %52
  store i8 1, ptr %13, align 1
  br label %76

76:                                               ; preds = %75, %74
  %77 = call i32 @H5E_clear_stack()
  %78 = load i64, ptr %5, align 8
  %79 = call i32 @H5I_get_type(i64 noundef %78)
  %80 = icmp eq i32 7, %79
  br i1 %80, label %81, label %96

81:                                               ; preds = %76
  br label %82

82:                                               ; preds = %81
  br label %83

83:                                               ; preds = %82
  br label %84

84:                                               ; preds = %83
  %85 = load i64, ptr @H5E_ARGS_g, align 8
  %86 = load i64, ptr @H5E_BADTYPE_g, align 8
  %87 = call i32 (ptr, ptr, i32, i64, i64, ptr, ...) @H5E_printf_stack(ptr noundef @.str, ptr noundef @__func__.H5Adelete_by_name, i32 noundef 2056, i64 noundef %85, i64 noundef %86, ptr noundef @.str.43)
  br label %88

88:                                               ; preds = %84
  store i8 1, ptr %14, align 1
  %89 = load i8, ptr %14, align 1
  %90 = trunc i8 %89 to i1
  %91 = zext i1 %90 to i8
  store i8 %91, ptr %14, align 1
  br label %92

92:                                               ; preds = %88
  br label %93

93:                                               ; preds = %92
  store i32 -1, ptr %12, align 4
  br label %213

94:                                               ; No predecessors!
  br label %95

95:                                               ; preds = %94
  br label %96

96:                                               ; preds = %95, %76
  %97 = load ptr, ptr %6, align 8
  %98 = icmp ne ptr %97, null
  br i1 %98, label %99, label %103

99:                                               ; preds = %96
  %100 = load ptr, ptr %6, align 8
  %101 = load i8, ptr %100, align 1
  %102 = icmp ne i8 %101, 0
  br i1 %102, label %118, label %103

103:                                              ; preds = %99, %96
  br label %104

104:                                              ; preds = %103
  br label %105

105:                                              ; preds = %104
  br label %106

106:                                              ; preds = %105
  %107 = load i64, ptr @H5E_ARGS_g, align 8
  %108 = load i64, ptr @H5E_BADVALUE_g, align 8
  %109 = call i32 (ptr, ptr, i32, i64, i64, ptr, ...) @H5E_printf_stack(ptr noundef @.str, ptr noundef @__func__.H5Adelete_by_name, i32 noundef 2058, i64 noundef %107, i64 noundef %108, ptr noundef @.str.54)
  br label %110

110:                                              ; preds = %106
  store i8 1, ptr %14, align 1
  %111 = load i8, ptr %14, align 1
  %112 = trunc i8 %111 to i1
  %113 = zext i1 %112 to i8
  store i8 %113, ptr %14, align 1
  br label %114

114:                                              ; preds = %110
  br label %115

115:                                              ; preds = %114
  store i32 -1, ptr %12, align 4
  br label %213

116:                                              ; No predecessors!
  br label %117

117:                                              ; preds = %116
  br label %118

118:                                              ; preds = %117, %99
  %119 = load ptr, ptr %7, align 8
  %120 = icmp ne ptr %119, null
  br i1 %120, label %121, label %125

121:                                              ; preds = %118
  %122 = load ptr, ptr %7, align 8
  %123 = load i8, ptr %122, align 1
  %124 = icmp ne i8 %123, 0
  br i1 %124, label %140, label %125

125:                                              ; preds = %121, %118
  br label %126

126:                                              ; preds = %125
  br label %127

127:                                              ; preds = %126
  br label %128

128:                                              ; preds = %127
  %129 = load i64, ptr @H5E_ARGS_g, align 8
  %130 = load i64, ptr @H5E_BADVALUE_g, align 8
  %131 = call i32 (ptr, ptr, i32, i64, i64, ptr, ...) @H5E_printf_stack(ptr noundef @.str, ptr noundef @__func__.H5Adelete_by_name, i32 noundef 2060, i64 noundef %129, i64 noundef %130, ptr noundef @.str.55)
  br label %132

132:                                              ; preds = %128
  store i8 1, ptr %14, align 1
  %133 = load i8, ptr %14, align 1
  %134 = trunc i8 %133 to i1
  %135 = zext i1 %134 to i8
  store i8 %135, ptr %14, align 1
  br label %136

136:                                              ; preds = %132
  br label %137

137:                                              ; preds = %136
  store i32 -1, ptr %12, align 4
  br label %213

138:                                              ; No predecessors!
  br label %139

139:                                              ; preds = %138
  br label %140

140:                                              ; preds = %139, %121
  %141 = load i64, ptr %5, align 8
  %142 = call i32 @H5CX_set_apl(ptr noundef %8, ptr noundef @H5P_CLS_LACC, i64 noundef %141, i1 noundef zeroext true)
  %143 = icmp slt i32 %142, 0
  br i1 %143, label %144, label %159

144:                                              ; preds = %140
  br label %145

145:                                              ; preds = %144
  br label %146

146:                                              ; preds = %145
  br label %147

147:                                              ; preds = %146
  %148 = load i64, ptr @H5E_ATTR_g, align 8
  %149 = load i64, ptr @H5E_CANTSET_g, align 8
  %150 = call i32 (ptr, ptr, i32, i64, i64, ptr, ...) @H5E_printf_stack(ptr noundef @.str, ptr noundef @__func__.H5Adelete_by_name, i32 noundef 2064, i64 noundef %148, i64 noundef %149, ptr noundef @.str.48)
  br label %151

151:                                              ; preds = %147
  store i8 1, ptr %14, align 1
  %152 = load i8, ptr %14, align 1
  %153 = trunc i8 %152 to i1
  %154 = zext i1 %153 to i8
  store i8 %154, ptr %14, align 1
  br label %155

155:                                              ; preds = %151
  br label %156

156:                                              ; preds = %155
  store i32 -1, ptr %12, align 4
  br label %213

157:                                              ; No predecessors!
  br label %158

158:                                              ; preds = %157
  br label %159

159:                                              ; preds = %158, %140
  %160 = load i64, ptr %5, align 8
  %161 = call ptr @H5VL_vol_object(i64 noundef %160)
  store ptr %161, ptr %9, align 8
  %162 = icmp eq ptr null, %161
  br i1 %162, label %163, label %178

163:                                              ; preds = %159
  br label %164

164:                                              ; preds = %163
  br label %165

165:                                              ; preds = %164
  br label %166

166:                                              ; preds = %165
  %167 = load i64, ptr @H5E_ARGS_g, align 8
  %168 = load i64, ptr @H5E_BADTYPE_g, align 8
  %169 = call i32 (ptr, ptr, i32, i64, i64, ptr, ...) @H5E_printf_stack(ptr noundef @.str, ptr noundef @__func__.H5Adelete_by_name, i32 noundef 2068, i64 noundef %167, i64 noundef %168, ptr noundef @.str.49)
  br label %170

170:                                              ; preds = %166
  store i8 1, ptr %14, align 1
  %171 = load i8, ptr %14, align 1
  %172 = trunc i8 %171 to i1
  %173 = zext i1 %172 to i8
  store i8 %173, ptr %14, align 1
  br label %174

174:                                              ; preds = %170
  br label %175

175:                                              ; preds = %174
  store i32 -1, ptr %12, align 4
  br label %213

176:                                              ; No predecessors!
  br label %177

177:                                              ; preds = %176
  br label %178

178:                                              ; preds = %177, %159
  %179 = getelementptr inbounds %struct.H5VL_loc_params_t, ptr %10, i32 0, i32 1
  store i32 1, ptr %179, align 4
  %180 = load ptr, ptr %6, align 8
  %181 = getelementptr inbounds %struct.H5VL_loc_params_t, ptr %10, i32 0, i32 2
  %182 = getelementptr inbounds %struct.H5VL_loc_by_name, ptr %181, i32 0, i32 0
  store ptr %180, ptr %182, align 8
  %183 = load i64, ptr %8, align 8
  %184 = getelementptr inbounds %struct.H5VL_loc_params_t, ptr %10, i32 0, i32 2
  %185 = getelementptr inbounds %struct.H5VL_loc_by_name, ptr %184, i32 0, i32 1
  store i64 %183, ptr %185, align 8
  %186 = load i64, ptr %5, align 8
  %187 = call i32 @H5I_get_type(i64 noundef %186)
  %188 = getelementptr inbounds %struct.H5VL_loc_params_t, ptr %10, i32 0, i32 0
  store i32 %187, ptr %188, align 8
  %189 = getelementptr inbounds %struct.H5VL_attr_specific_args_t, ptr %11, i32 0, i32 0
  store i32 0, ptr %189, align 8
  %190 = load ptr, ptr %7, align 8
  %191 = getelementptr inbounds %struct.H5VL_attr_specific_args_t, ptr %11, i32 0, i32 1
  %192 = getelementptr inbounds %struct.anon.5, ptr %191, i32 0, i32 0
  store ptr %190, ptr %192, align 8
  %193 = load ptr, ptr %9, align 8
  %194 = load i64, ptr @H5P_LST_DATASET_XFER_ID_g, align 8
  %195 = call i32 @H5VL_attr_specific(ptr noundef %193, ptr noundef %10, ptr noundef %11, i64 noundef %194, ptr noundef null)
  %196 = icmp slt i32 %195, 0
  br i1 %196, label %197, label %212

197:                                              ; preds = %178
  br label %198

198:                                              ; preds = %197
  br label %199

199:                                              ; preds = %198
  br label %200

200:                                              ; preds = %199
  %201 = load i64, ptr @H5E_ATTR_g, align 8
  %202 = load i64, ptr @H5E_CANTDELETE_g, align 8
  %203 = call i32 (ptr, ptr, i32, i64, i64, ptr, ...) @H5E_printf_stack(ptr noundef @.str, ptr noundef @__func__.H5Adelete_by_name, i32 noundef 2082, i64 noundef %201, i64 noundef %202, ptr noundef @.str.71)
  br label %204

204:                                              ; preds = %200
  store i8 1, ptr %14, align 1
  %205 = load i8, ptr %14, align 1
  %206 = trunc i8 %205 to i1
  %207 = zext i1 %206 to i8
  store i8 %207, ptr %14, align 1
  br label %208

208:                                              ; preds = %204
  br label %209

209:                                              ; preds = %208
  store i32 -1, ptr %12, align 4
  br label %213

210:                                              ; No predecessors!
  br label %211

211:                                              ; preds = %210
  br label %212

212:                                              ; preds = %211, %178
  br label %213

213:                                              ; preds = %212, %209, %175, %156, %137, %115, %93, %72, %48
  %214 = load i8, ptr %13, align 1
  %215 = trunc i8 %214 to i1
  %216 = xor i1 %215, true
  %217 = xor i1 %216, true
  %218 = zext i1 %217 to i32
  %219 = sext i32 %218 to i64
  %220 = icmp ne i64 %219, 0
  br i1 %220, label %221, label %223

221:                                              ; preds = %213
  %222 = call i32 @H5CX_pop(i1 noundef zeroext true)
  store i8 0, ptr %13, align 1
  br label %223

223:                                              ; preds = %221, %213
  %224 = load i8, ptr %14, align 1
  %225 = trunc i8 %224 to i1
  %226 = xor i1 %225, true
  %227 = xor i1 %226, true
  %228 = zext i1 %227 to i32
  %229 = sext i32 %228 to i64
  %230 = icmp ne i64 %229, 0
  br i1 %230, label %231, label %233

231:                                              ; preds = %223
  %232 = call i32 @H5E_dump_api_stack()
  br label %233

233:                                              ; preds = %231, %223
  %234 = load i32, ptr %12, align 4
  ret i32 %234
}