; Function Attrs: nounwind uwtable
define range(i32 -1, 1) i32 @H5Adelete_by_name(i64 noundef %0, ptr noundef %1, ptr noundef %2, i64 noundef %3) local_unnamed_addr #0 {
  %5 = alloca i64, align 8
  %6 = alloca %struct.H5VL_loc_params_t, align 8
  %7 = alloca %struct.H5VL_attr_specific_args_t, align 8
  store i64 %3, ptr %5, align 8
  %8 = load i8, ptr @H5_libinit_g, align 1
  %9 = trunc i8 %8 to i1
  %10 = load i8, ptr @H5_libterm_g, align 1
  %11 = trunc i8 %10 to i1
  %12 = select i1 %9, i1 true, i1 %11
  br i1 %12, label %20, label %13

13:                                               ; preds = %4
  %14 = tail call i32 @H5_init_library() #4
  %15 = icmp slt i32 %14, 0
  br i1 %15, label %16, label %20

16:                                               ; preds = %13
  %17 = load i64, ptr @H5E_FUNC_g, align 8
  %18 = load i64, ptr @H5E_CANTINIT_g, align 8
  %19 = tail call i32 (ptr, ptr, i32, i64, i64, ptr, ...) @H5E_printf_stack(ptr noundef nonnull @.str, ptr noundef nonnull @__func__.H5Adelete_by_name, i32 noundef 2052, i64 noundef %17, i64 noundef %18, ptr noundef nonnull @.str.1) #4
  br label %.thread37

20:                                               ; preds = %13, %4
  %21 = tail call i32 @H5CX_push() #4
  %22 = icmp slt i32 %21, 0
  br i1 %22, label %23, label %27

23:                                               ; preds = %20
  %24 = load i64, ptr @H5E_FUNC_g, align 8
  %25 = load i64, ptr @H5E_CANTSET_g, align 8
  %26 = tail call i32 (ptr, ptr, i32, i64, i64, ptr, ...) @H5E_printf_stack(ptr noundef nonnull @.str, ptr noundef nonnull @__func__.H5Adelete_by_name, i32 noundef 2052, i64 noundef %24, i64 noundef %25, ptr noundef nonnull @.str.2) #4
  br label %.thread37

27:                                               ; preds = %20
  %28 = tail call i32 @H5E_clear_stack() #4
  %29 = tail call i32 @H5I_get_type(i64 noundef %0) #4
  %30 = icmp eq i32 %29, 7
  br i1 %30, label %31, label %35

31:                                               ; preds = %27
  %32 = load i64, ptr @H5E_ARGS_g, align 8
  %33 = load i64, ptr @H5E_BADTYPE_g, align 8
  %34 = tail call i32 (ptr, ptr, i32, i64, i64, ptr, ...) @H5E_printf_stack(ptr noundef nonnull @.str, ptr noundef nonnull @__func__.H5Adelete_by_name, i32 noundef 2056, i64 noundef %32, i64 noundef %33, ptr noundef nonnull @.str.43) #4
  br label %.thread43

35:                                               ; preds = %27
  %.not = icmp eq ptr %1, null
  br i1 %.not, label %38, label %36

36:                                               ; preds = %35
  %37 = load i8, ptr %1, align 1
  %.not26 = icmp eq i8 %37, 0
  br i1 %.not26, label %38, label %42

38:                                               ; preds = %35, %36
  %39 = load i64, ptr @H5E_ARGS_g, align 8
  %40 = load i64, ptr @H5E_BADVALUE_g, align 8
  %41 = tail call i32 (ptr, ptr, i32, i64, i64, ptr, ...) @H5E_printf_stack(ptr noundef nonnull @.str, ptr noundef nonnull @__func__.H5Adelete_by_name, i32 noundef 2058, i64 noundef %39, i64 noundef %40, ptr noundef nonnull @.str.54) #4
  br label %.thread43

42:                                               ; preds = %36
  %.not27 = icmp eq ptr %2, null
  br i1 %.not27, label %45, label %43

43:                                               ; preds = %42
  %44 = load i8, ptr %2, align 1
  %.not28 = icmp eq i8 %44, 0
  br i1 %.not28, label %45, label %49

45:                                               ; preds = %42, %43
  %46 = load i64, ptr @H5E_ARGS_g, align 8
  %47 = load i64, ptr @H5E_BADVALUE_g, align 8
  %48 = tail call i32 (ptr, ptr, i32, i64, i64, ptr, ...) @H5E_printf_stack(ptr noundef nonnull @.str, ptr noundef nonnull @__func__.H5Adelete_by_name, i32 noundef 2060, i64 noundef %46, i64 noundef %47, ptr noundef nonnull @.str.55) #4
  br label %.thread43

49:                                               ; preds = %43
  %50 = call i32 @H5CX_set_apl(ptr noundef nonnull %5, ptr noundef nonnull @H5P_CLS_LACC, i64 noundef %0, i1 noundef zeroext true) #4
  %51 = icmp slt i32 %50, 0
  br i1 %51, label %52, label %56

52:                                               ; preds = %49
  %53 = load i64, ptr @H5E_ATTR_g, align 8
  %54 = load i64, ptr @H5E_CANTSET_g, align 8
  %55 = call i32 (ptr, ptr, i32, i64, i64, ptr, ...) @H5E_printf_stack(ptr noundef nonnull @.str, ptr noundef nonnull @__func__.H5Adelete_by_name, i32 noundef 2064, i64 noundef %53, i64 noundef %54, ptr noundef nonnull @.str.48) #4
  br label %.thread43

56:                                               ; preds = %49
  %57 = call ptr @H5VL_vol_object(i64 noundef %0) #4
  %58 = icmp eq ptr %57, null
  br i1 %58, label %59, label %63

59:                                               ; preds = %56
  %60 = load i64, ptr @H5E_ARGS_g, align 8
  %61 = load i64, ptr @H5E_BADTYPE_g, align 8
  %62 = call i32 (ptr, ptr, i32, i64, i64, ptr, ...) @H5E_printf_stack(ptr noundef nonnull @.str, ptr noundef nonnull @__func__.H5Adelete_by_name, i32 noundef 2068, i64 noundef %60, i64 noundef %61, ptr noundef nonnull @.str.49) #4
  br label %.thread43

63:                                               ; preds = %56
  %64 = getelementptr inbounds i8, ptr %6, i64 4
  store i32 1, ptr %64, align 4
  %65 = getelementptr inbounds i8, ptr %6, i64 8
  store ptr %1, ptr %65, align 8
  %66 = load i64, ptr %5, align 8
  %67 = getelementptr inbounds i8, ptr %6, i64 16
  store i64 %66, ptr %67, align 8
  %68 = call i32 @H5I_get_type(i64 noundef %0) #4
  store i32 %68, ptr %6, align 8
  store i32 0, ptr %7, align 8
  %69 = getelementptr inbounds i8, ptr %7, i64 8
  store ptr %2, ptr %69, align 8
  %70 = load i64, ptr @H5P_LST_DATASET_XFER_ID_g, align 8
  %71 = call i32 @H5VL_attr_specific(ptr noundef nonnull %57, ptr noundef nonnull %6, ptr noundef nonnull %7, i64 noundef %70, ptr noundef null) #4
  %72 = icmp slt i32 %71, 0
  br i1 %72, label %73, label %78

73:                                               ; preds = %63
  %74 = load i64, ptr @H5E_ATTR_g, align 8
  %75 = load i64, ptr @H5E_CANTDELETE_g, align 8
  %76 = call i32 (ptr, ptr, i32, i64, i64, ptr, ...) @H5E_printf_stack(ptr noundef nonnull @.str, ptr noundef nonnull @__func__.H5Adelete_by_name, i32 noundef 2082, i64 noundef %74, i64 noundef %75, ptr noundef nonnull @.str.71) #4
  br label %.thread43

.thread43:                                        ; preds = %38, %45, %73, %59, %52, %31
  %77 = call i32 @H5CX_pop(i1 noundef zeroext true) #4
  br label %.thread37

78:                                               ; preds = %63
  %79 = call i32 @H5CX_pop(i1 noundef zeroext true) #4
  br label %81

.thread37:                                        ; preds = %23, %16, %.thread43
  %80 = call i32 @H5E_dump_api_stack() #4
  br label %81

81:                                               ; preds = %78, %.thread37
  %.0223240 = phi i32 [ -1, %.thread37 ], [ 0, %78 ]
  ret i32 %.0223240
}